target datalayout = "e-m:e-p270:32:32-p271:32:32-p272:64:64-i64:64-i128:128-f80:128-n8:16:32:64-S128"
target triple = "x86_64-pc-linux-gnu"

; Function Attrs: mustprogress nounwind uwtable
define internal noundef double @_ZL8safe_expd(double noundef %0) #0 {
  %2 = alloca double, align 8
  %3 = alloca double, align 8
  %4 = alloca double, align 8
  %5 = alloca double, align 8
  %6 = alloca i32, align 4
  store double %0, ptr %3, align 8, !tbaa !16
  call void @llvm.lifetime.start.p0(i64 8, ptr %4) #14
  store double 2.000000e+02, ptr %4, align 8, !tbaa !16
  call void @llvm.lifetime.start.p0(i64 8, ptr %5) #14
  %7 = load double, ptr %4, align 8, !tbaa !16
  %8 = fneg double %7
  store double %8, ptr %5, align 8, !tbaa !16
  %9 = load double, ptr %3, align 8, !tbaa !16
  %10 = load double, ptr %5, align 8, !tbaa !16
  %11 = fcmp ole double %9, %10
  br i1 %11, label %12, label %15

12:                                               ; preds = %1
  %13 = load double, ptr %5, align 8, !tbaa !16
  %14 = call double @exp(double noundef %13) #14, !tbaa !4
  store double %14, ptr %2, align 8
  store i32 1, ptr %6, align 4
  br label %25

15:                                               ; preds = %1
  %16 = load double, ptr %3, align 8, !tbaa !16
  %17 = load double, ptr %4, align 8, !tbaa !16
  %18 = fcmp oge double %16, %17
  br i1 %18, label %19, label %22

19:                                               ; preds = %15
  %20 = load double, ptr %4, align 8, !tbaa !16
  %21 = call double @exp(double noundef %20) #14, !tbaa !4
  store double %21, ptr %2, align 8
  store i32 1, ptr %6, align 4
  br label %25

22:                                               ; preds = %15
  %23 = load double, ptr %3, align 8, !tbaa !16
  %24 = call double @exp(double noundef %23) #14, !tbaa !4
  store double %24, ptr %2, align 8
  store i32 1, ptr %6, align 4
  br label %25

25:                                               ; preds = %22, %19, %12
  call void @llvm.lifetime.end.p0(i64 8, ptr %5) #14
  call void @llvm.lifetime.end.p0(i64 8, ptr %4) #14
  %26 = load double, ptr %2, align 8
  ret double %26
}

; Function Attrs: inlinehint mustprogress nounwind uwtable
define linkonce_odr noundef nonnull align 8 dereferenceable(8) ptr @_ZSt3minIdERKT_S2_S2_(ptr noundef nonnull align 8 dereferenceable(8) %0, ptr noundef nonnull align 8 dereferenceable(8) %1) #6 comdat {
  %3 = alloca ptr, align 8
  %4 = alloca ptr, align 8
  %5 = alloca ptr, align 8
  store ptr %0, ptr %4, align 8, !tbaa !18
  store ptr %1, ptr %5, align 8, !tbaa !18
  %6 = load ptr, ptr %5, align 8, !tbaa !18
  %7 = load double, ptr %6, align 8, !tbaa !16
  %8 = load ptr, ptr %4, align 8, !tbaa !18
  %9 = load double, ptr %8, align 8, !tbaa !16
  %10 = fcmp olt double %7, %9
  br i1 %10, label %11, label %13

11:                                               ; preds = %2
  %12 = load ptr, ptr %5, align 8, !tbaa !18
  store ptr %12, ptr %3, align 8
  br label %15

13:                                               ; preds = %2
  %14 = load ptr, ptr %4, align 8, !tbaa !18
  store ptr %14, ptr %3, align 8
  br label %15

15:                                               ; preds = %13, %11
  %16 = load ptr, ptr %3, align 8
  ret ptr %16
}

; Function Attrs: mustprogress nounwind uwtable
define internal noundef double @_ZL15lmc_pres_6_parmdPKd(double noundef %0, ptr noundef %1) #0 {
  %3 = alloca double, align 8
  %4 = alloca ptr, align 8
  %5 = alloca double, align 8
  %6 = alloca double, align 8
  %7 = alloca double, align 8
  %8 = alloca double, align 8
  %9 = alloca double, align 8
  %10 = alloca double, align 8
  %11 = alloca double, align 8
  %12 = alloca double, align 8
  store double %0, ptr %3, align 8, !tbaa !16
  store ptr %1, ptr %4, align 8, !tbaa !18
  call void @llvm.lifetime.start.p0(i64 8, ptr %5) #14
  call void @llvm.lifetime.start.p0(i64 8, ptr %6) #14
  call void @llvm.lifetime.start.p0(i64 8, ptr %7) #14
  call void @llvm.lifetime.start.p0(i64 8, ptr %8) #14
  store double 1.000000e+01, ptr %8, align 8, !tbaa !16
  store double 0.000000e+00, ptr %7, align 8, !tbaa !16
  %13 = load ptr, ptr %4, align 8, !tbaa !18
  %14 = getelementptr inbounds double, ptr %13, i64 4
  %15 = load double, ptr %14, align 8, !tbaa !16
  %16 = fcmp une double %15, 0.000000e+00
  br i1 %16, label %17, label %43

17:                                               ; preds = %2
  %18 = load ptr, ptr %4, align 8, !tbaa !18
  %19 = getelementptr inbounds double, ptr %18, i64 0
  %20 = load double, ptr %19, align 8, !tbaa !16
  %21 = fcmp une double %20, 0.000000e+00
  br i1 %21, label %22, label %43

22:                                               ; preds = %17
  call void @llvm.lifetime.start.p0(i64 8, ptr %9) #14
  call void @llvm.lifetime.start.p0(i64 8, ptr %10) #14
  %23 = load ptr, ptr %4, align 8, !tbaa !18
  %24 = getelementptr inbounds double, ptr %23, i64 5
  %25 = load double, ptr %24, align 8, !tbaa !16
  %26 = call double @llvm.fabs.f64(double %25)
  store double %26, ptr %10, align 8, !tbaa !16
  %27 = call noundef nonnull align 8 dereferenceable(8) ptr @_ZSt3minIdERKT_S2_S2_(ptr noundef nonnull align 8 dereferenceable(8) %10, ptr noundef nonnull align 8 dereferenceable(8) %8)
  %28 = load double, ptr %27, align 8, !tbaa !16
  call void @llvm.lifetime.end.p0(i64 8, ptr %10) #14
  store double %28, ptr %9, align 8, !tbaa !16
  %29 = load ptr, ptr %4, align 8, !tbaa !18
  %30 = getelementptr inbounds double, ptr %29, i64 0
  %31 = load double, ptr %30, align 8, !tbaa !16
  %32 = load double, ptr %3, align 8, !tbaa !16
  %33 = load ptr, ptr %4, align 8, !tbaa !18
  %34 = getelementptr inbounds double, ptr %33, i64 4
  %35 = load double, ptr %34, align 8, !tbaa !16
  %36 = call double @llvm.fabs.f64(double %35)
  %37 = fdiv double %32, %36
  %38 = load double, ptr %9, align 8, !tbaa !16
  %39 = call double @pow(double noundef %37, double noundef %38) #14, !tbaa !4
  %40 = fneg double %39
  %41 = call noundef double @_ZL8safe_expd(double noundef %40)
  %42 = fmul double %31, %41
  store double %42, ptr %7, align 8, !tbaa !16
  call void @llvm.lifetime.end.p0(i64 8, ptr %9) #14
  br label %43

43:                                               ; preds = %22, %17, %2
  %44 = load ptr, ptr %4, align 8, !tbaa !18
  %45 = getelementptr inbounds double, ptr %44, i64 0
  %46 = load double, ptr %45, align 8, !tbaa !16
  %47 = fsub double 1.000000e+00, %46
  store double %47, ptr %5, align 8, !tbaa !16
  store double 0.000000e+00, ptr %6, align 8, !tbaa !16
  %48 = load double, ptr %5, align 8, !tbaa !16
  %49 = fcmp une double %48, 0.000000e+00
  br i1 %49, label %50, label %80

50:                                               ; preds = %43
  %51 = load ptr, ptr %4, align 8, !tbaa !18
  %52 = getelementptr inbounds double, ptr %51, i64 2
  %53 = load double, ptr %52, align 8, !tbaa !16
  %54 = fcmp une double %53, 0.000000e+00
  br i1 %54, label %55, label %80

55:                                               ; preds = %50
  call void @llvm.lifetime.start.p0(i64 8, ptr %11) #14
  call void @llvm.lifetime.start.p0(i64 8, ptr %12) #14
  %56 = load ptr, ptr %4, align 8, !tbaa !18
  %57 = getelementptr inbounds double, ptr %56, i64 3
  %58 = load double, ptr %57, align 8, !tbaa !16
  %59 = call double @llvm.fabs.f64(double %58)
  store double %59, ptr %12, align 8, !tbaa !16
  %60 = call noundef nonnull align 8 dereferenceable(8) ptr @_ZSt3minIdERKT_S2_S2_(ptr noundef nonnull align 8 dereferenceable(8) %12, ptr noundef nonnull align 8 dereferenceable(8) %8)
  %61 = load double, ptr %60, align 8, !tbaa !16
  call void @llvm.lifetime.end.p0(i64 8, ptr %12) #14
  store double %61, ptr %11, align 8, !tbaa !16
  %62 = load double, ptr %3, align 8, !tbaa !16
  %63 = load ptr, ptr %4, align 8, !tbaa !18
  %64 = getelementptr inbounds double, ptr %63, i64 2
  %65 = load double, ptr %64, align 8, !tbaa !16
  %66 = call double @llvm.fabs.f64(double %65)
  %67 = fdiv double %62, %66
  %68 = load double, ptr %11, align 8, !tbaa !16
  %69 = call double @pow(double noundef %67, double noundef %68) #14, !tbaa !4
  %70 = fneg double %69
  %71 = call noundef double @_ZL8safe_expd(double noundef %70)
  %72 = load double, ptr %3, align 8, !tbaa !16
  %73 = load ptr, ptr %4, align 8, !tbaa !18
  %74 = getelementptr inbounds double, ptr %73, i64 1
  %75 = load double, ptr %74, align 8, !tbaa !16
  %76 = call double @llvm.fabs.f64(double %75)
  %77 = fmul double %72, %76
  %78 = call double @cos(double noundef %77) #14, !tbaa !4
  %79 = fmul double %71, %78
  store double %79, ptr %6, align 8, !tbaa !16
  call void @llvm.lifetime.end.p0(i64 8, ptr %11) #14
  br label %80

80:                                               ; preds = %55, %50, %43
  %81 = load double, ptr %5, align 8, !tbaa !16
  %82 = load double, ptr %6, align 8, !tbaa !16
  %83 = load double, ptr %7, align 8, !tbaa !16
  %84 = call double @llvm.fmuladd.f64(double %81, double %82, double %83)
  call void @llvm.lifetime.end.p0(i64 8, ptr %8) #14
  call void @llvm.lifetime.end.p0(i64 8, ptr %7) #14
  call void @llvm.lifetime.end.p0(i64 8, ptr %6) #14
  call void @llvm.lifetime.end.p0(i64 8, ptr %5) #14
  ret double %84
}