; Function Attrs: mustprogress nofree nounwind willreturn memory(write, argmem: readwrite) uwtable
define internal noundef double @_ZL15lmc_pres_6_parmdPKd(double noundef %0, ptr noundef readonly captures(none) %1) #4 {
  %3 = getelementptr inbounds nuw i8, ptr %1, i64 32
  %4 = load double, ptr %3, align 8, !tbaa !13
  %5 = fcmp une double %4, 0.000000e+00
  %.pre = load double, ptr %1, align 8, !tbaa !13
  %6 = fcmp une double %.pre, 0.000000e+00
  %or.cond = select i1 %5, i1 %6, i1 false
  br i1 %or.cond, label %7, label %22

7:                                                ; preds = %2
  %8 = getelementptr inbounds nuw i8, ptr %1, i64 40
  %9 = load double, ptr %8, align 8, !tbaa !13
  %10 = tail call double @llvm.fabs.f64(double %9)
  %11 = fcmp ogt double %10, 1.000000e+01
  %.sroa.speculated24 = select i1 %11, double 1.000000e+01, double %10
  %12 = tail call double @llvm.fabs.f64(double %4)
  %13 = fdiv double %0, %12
  %14 = tail call double @pow(double noundef %13, double noundef %.sroa.speculated24) #18, !tbaa !4
  %15 = fneg double %14
  %16 = fcmp ult double %14, 2.000000e+02
  br i1 %16, label %17, label %_ZL8safe_expd.exit

17:                                               ; preds = %7
  %18 = fcmp ugt double %14, -2.000000e+02
  br i1 %18, label %19, label %_ZL8safe_expd.exit

19:                                               ; preds = %17
  %20 = tail call double @exp(double noundef %15) #18, !tbaa !4
  br label %_ZL8safe_expd.exit

_ZL8safe_expd.exit:                               ; preds = %7, %17, %19
  %.0.i = phi double [ %20, %19 ], [ 0x2DE6061812054CFA, %7 ], [ 0x51F73F60EA79F5B9, %17 ]
  %21 = fmul double %.pre, %.0.i
  br label %22

22:                                               ; preds = %_ZL8safe_expd.exit, %2
  %.019 = phi double [ %21, %_ZL8safe_expd.exit ], [ 0.000000e+00, %2 ]
  %23 = fsub double 1.000000e+00, %.pre
  %24 = fcmp une double %23, 0.000000e+00
  br i1 %24, label %25, label %49

25:                                               ; preds = %22
  %26 = getelementptr inbounds nuw i8, ptr %1, i64 16
  %27 = load double, ptr %26, align 8, !tbaa !13
  %28 = fcmp une double %27, 0.000000e+00
  br i1 %28, label %29, label %49

29:                                               ; preds = %25
  %30 = getelementptr inbounds nuw i8, ptr %1, i64 24
  %31 = load double, ptr %30, align 8, !tbaa !13
  %32 = tail call double @llvm.fabs.f64(double %31)
  %33 = fcmp ogt double %32, 1.000000e+01
  %.sroa.speculated = select i1 %33, double 1.000000e+01, double %32
  %34 = tail call double @llvm.fabs.f64(double %27)
  %35 = fdiv double %0, %34
  %36 = tail call double @pow(double noundef %35, double noundef %.sroa.speculated) #18, !tbaa !4
  %37 = fneg double %36
  %38 = fcmp ult double %36, 2.000000e+02
  br i1 %38, label %39, label %_ZL8safe_expd.exit22

39:                                               ; preds = %29
  %40 = fcmp ugt double %36, -2.000000e+02
  br i1 %40, label %41, label %_ZL8safe_expd.exit22

41:                                               ; preds = %39
  %42 = tail call double @exp(double noundef %37) #18, !tbaa !4
  br label %_ZL8safe_expd.exit22

_ZL8safe_expd.exit22:                             ; preds = %29, %39, %41
  %.0.i21 = phi double [ %42, %41 ], [ 0x2DE6061812054CFA, %29 ], [ 0x51F73F60EA79F5B9, %39 ]
  %43 = getelementptr inbounds nuw i8, ptr %1, i64 8
  %44 = load double, ptr %43, align 8, !tbaa !13
  %45 = tail call double @llvm.fabs.f64(double %44)
  %46 = fmul double %0, %45
  %47 = tail call double @cos(double noundef %46) #18, !tbaa !4
  %48 = fmul double %.0.i21, %47
  br label %49

49:                                               ; preds = %_ZL8safe_expd.exit22, %25, %22
  %.0 = phi double [ %48, %_ZL8safe_expd.exit22 ], [ 0.000000e+00, %25 ], [ 0.000000e+00, %22 ]
  %50 = tail call double @llvm.fmuladd.f64(double %23, double %.0, double %.019)
  ret double %50
}